; Function Attrs: nounwind uwtable
define dso_local void @fsync_or_die(i32 noundef %0, ptr noundef %1) local_unnamed_addr #0 {
  %3 = load i32, ptr @use_fsync, align 4, !tbaa !9
  %4 = icmp slt i32 %3, 0
  br i1 %4, label %5, label %7

5:                                                ; preds = %2
  %6 = tail call i32 @git_env_bool(ptr noundef nonnull @.str.6, i32 noundef 1) #8
  store i32 %6, ptr @use_fsync, align 4, !tbaa !9
  br label %7

7:                                                ; preds = %5, %2
  %8 = phi i32 [ %6, %5 ], [ %3, %2 ]
  %.not.i = icmp eq i32 %8, 0
  br i1 %.not.i, label %maybe_fsync.exit.thread, label %9

9:                                                ; preds = %7
  %10 = load i32, ptr @fsync_method, align 4, !tbaa !9
  %11 = icmp eq i32 %10, 1
  br i1 %11, label %12, label %maybe_fsync.exit

12:                                               ; preds = %9
  %13 = tail call i32 @git_fsync(i32 noundef %0, i32 noundef 0) #8
  %14 = icmp sgt i32 %13, -1
  br i1 %14, label %maybe_fsync.exit.thread, label %maybe_fsync.exit

maybe_fsync.exit:                                 ; preds = %9, %12
  %15 = tail call i32 @git_fsync(i32 noundef %0, i32 noundef 1) #8
  %16 = icmp slt i32 %15, 0
  br i1 %16, label %17, label %maybe_fsync.exit.thread

17:                                               ; preds = %maybe_fsync.exit
  tail call void (ptr, ...) @die_errno(ptr noundef nonnull @.str.3, ptr noundef %1) #10
  unreachable

maybe_fsync.exit.thread:                          ; preds = %12, %7, %maybe_fsync.exit
  ret void
}